target datalayout = "e-m:e-p270:32:32-p271:32:32-p272:64:64-i64:64-i128:128-f80:128-n8:16:32:64-S128"
target triple = "x86_64-pc-linux-gnu"

%struct.refspec_item = type { i8, ptr, ptr, ptr }
%struct.refspec = type { ptr, i32, i32, i32 }

; Function Attrs: nounwind uwtable
define dso_local void @refspec_item_clear(ptr noundef %0) #0 {
  %2 = alloca ptr, align 8
  store ptr %0, ptr %2, align 8, !tbaa !4
  br label %3

3:                                                ; preds = %1
  %4 = load ptr, ptr %2, align 8, !tbaa !4
  %5 = getelementptr inbounds nuw %struct.refspec_item, ptr %4, i32 0, i32 1
  %6 = load ptr, ptr %5, align 8, !tbaa !19
  call void @free(ptr noundef %6) #10
  %7 = load ptr, ptr %2, align 8, !tbaa !4
  %8 = getelementptr inbounds nuw %struct.refspec_item, ptr %7, i32 0, i32 1
  store ptr null, ptr %8, align 8, !tbaa !19
  br label %9

9:                                                ; preds = %3
  br label %10

10:                                               ; preds = %9
  %11 = load ptr, ptr %2, align 8, !tbaa !4
  %12 = getelementptr inbounds nuw %struct.refspec_item, ptr %11, i32 0, i32 2
  %13 = load ptr, ptr %12, align 8, !tbaa !18
  call void @free(ptr noundef %13) #10
  %14 = load ptr, ptr %2, align 8, !tbaa !4
  %15 = getelementptr inbounds nuw %struct.refspec_item, ptr %14, i32 0, i32 2
  store ptr null, ptr %15, align 8, !tbaa !18
  br label %16

16:                                               ; preds = %10
  br label %17

17:                                               ; preds = %16
  %18 = load ptr, ptr %2, align 8, !tbaa !4
  %19 = getelementptr inbounds nuw %struct.refspec_item, ptr %18, i32 0, i32 3
  %20 = load ptr, ptr %19, align 8, !tbaa !13
  call void @free(ptr noundef %20) #10
  %21 = load ptr, ptr %2, align 8, !tbaa !4
  %22 = getelementptr inbounds nuw %struct.refspec_item, ptr %21, i32 0, i32 3
  store ptr null, ptr %22, align 8, !tbaa !13
  br label %23

23:                                               ; preds = %17
  %24 = load ptr, ptr %2, align 8, !tbaa !4
  %25 = load i8, ptr %24, align 8
  %26 = and i8 %25, -2
  %27 = or i8 %26, 0
  store i8 %27, ptr %24, align 8
  %28 = load ptr, ptr %2, align 8, !tbaa !4
  %29 = load i8, ptr %28, align 8
  %30 = and i8 %29, -3
  %31 = or i8 %30, 0
  store i8 %31, ptr %28, align 8
  %32 = load ptr, ptr %2, align 8, !tbaa !4
  %33 = load i8, ptr %32, align 8
  %34 = and i8 %33, -5
  %35 = or i8 %34, 0
  store i8 %35, ptr %32, align 8
  %36 = load ptr, ptr %2, align 8, !tbaa !4
  %37 = load i8, ptr %36, align 8
  %38 = and i8 %37, -9
  %39 = or i8 %38, 0
  store i8 %39, ptr %36, align 8
  ret void
}

; Function Attrs: nounwind uwtable
define dso_local void @refspec_clear(ptr noundef %0) #0 {
  %2 = alloca ptr, align 8
  %3 = alloca i32, align 4
  store ptr %0, ptr %2, align 8, !tbaa !43
  call void @llvm.lifetime.start.p0(i64 4, ptr %3) #10
  store i32 0, ptr %3, align 4, !tbaa !11
  br label %4

4:                                                ; preds = %17, %1
  %5 = load i32, ptr %3, align 4, !tbaa !11
  %6 = load ptr, ptr %2, align 8, !tbaa !43
  %7 = getelementptr inbounds nuw %struct.refspec, ptr %6, i32 0, i32 2
  %8 = load i32, ptr %7, align 4, !tbaa !47
  %9 = icmp slt i32 %5, %8
  br i1 %9, label %10, label %20

10:                                               ; preds = %4
  %11 = load ptr, ptr %2, align 8, !tbaa !43
  %12 = getelementptr inbounds nuw %struct.refspec, ptr %11, i32 0, i32 0
  %13 = load ptr, ptr %12, align 8, !tbaa !49
  %14 = load i32, ptr %3, align 4, !tbaa !11
  %15 = sext i32 %14 to i64
  %16 = getelementptr inbounds %struct.refspec_item, ptr %13, i64 %15
  call void @refspec_item_clear(ptr noundef %16)
  br label %17

17:                                               ; preds = %10
  %18 = load i32, ptr %3, align 4, !tbaa !11
  %19 = add nsw i32 %18, 1
  store i32 %19, ptr %3, align 4, !tbaa !11
  br label %4, !llvm.loop !55

20:                                               ; preds = %4
  br label %21

21:                                               ; preds = %20
  %22 = load ptr, ptr %2, align 8, !tbaa !43
  %23 = getelementptr inbounds nuw %struct.refspec, ptr %22, i32 0, i32 0
  %24 = load ptr, ptr %23, align 8, !tbaa !49
  call void @free(ptr noundef %24) #10
  %25 = load ptr, ptr %2, align 8, !tbaa !43
  %26 = getelementptr inbounds nuw %struct.refspec, ptr %25, i32 0, i32 0
  store ptr null, ptr %26, align 8, !tbaa !49
  br label %27

27:                                               ; preds = %21
  br label %28

28:                                               ; preds = %27
  %29 = load ptr, ptr %2, align 8, !tbaa !43
  %30 = getelementptr inbounds nuw %struct.refspec, ptr %29, i32 0, i32 1
  store i32 0, ptr %30, align 8, !tbaa !48
  %31 = load ptr, ptr %2, align 8, !tbaa !43
  %32 = getelementptr inbounds nuw %struct.refspec, ptr %31, i32 0, i32 2
  store i32 0, ptr %32, align 4, !tbaa !47
  %33 = load ptr, ptr %2, align 8, !tbaa !43
  %34 = getelementptr inbounds nuw %struct.refspec, ptr %33, i32 0, i32 3
  store i32 0, ptr %34, align 8, !tbaa !45
  call void @llvm.lifetime.end.p0(i64 4, ptr %3) #10
  ret void
}