; Function Attrs: nounwind uwtable
define dso_local void @refspec_clear(ptr noundef captures(none) %0) local_unnamed_addr #0 {
  %2 = getelementptr inbounds nuw i8, ptr %0, i64 12
  %3 = load i32, ptr %2, align 4, !tbaa !42
  %4 = icmp sgt i32 %3, 0
  br i1 %4, label %.lr.ph, label %._crit_edge

.lr.ph:                                           ; preds = %1, %.lr.ph
  %indvars.iv = phi i64 [ %indvars.iv.next, %.lr.ph ], [ 0, %1 ]
  %5 = load ptr, ptr %0, align 8, !tbaa !44
  %6 = getelementptr inbounds nuw %struct.refspec_item, ptr %5, i64 %indvars.iv
  %7 = getelementptr inbounds nuw i8, ptr %6, i64 8
  %8 = load ptr, ptr %7, align 8, !tbaa !13
  tail call void @free(ptr noundef %8) #13
  store ptr null, ptr %7, align 8, !tbaa !13
  %9 = getelementptr inbounds nuw i8, ptr %6, i64 16
  %10 = load ptr, ptr %9, align 8, !tbaa !12
  tail call void @free(ptr noundef %10) #13
  store ptr null, ptr %9, align 8, !tbaa !12
  %11 = getelementptr inbounds nuw i8, ptr %6, i64 24
  %12 = load ptr, ptr %11, align 8, !tbaa !4
  tail call void @free(ptr noundef %12) #13
  store ptr null, ptr %11, align 8, !tbaa !4
  %13 = load i8, ptr %6, align 8
  %14 = and i8 %13, -16
  store i8 %14, ptr %6, align 8
  %indvars.iv.next = add nuw nsw i64 %indvars.iv, 1
  %15 = load i32, ptr %2, align 4, !tbaa !42
  %16 = sext i32 %15 to i64
  %17 = icmp slt i64 %indvars.iv.next, %16
  br i1 %17, label %.lr.ph, label %._crit_edge, !llvm.loop !49

._crit_edge:                                      ; preds = %.lr.ph, %1
  %18 = load ptr, ptr %0, align 8, !tbaa !44
  tail call void @free(ptr noundef %18) #13
  tail call void @llvm.memset.p0.i64(ptr noundef nonnull align 8 dereferenceable(20) %0, i8 0, i64 20, i1 false)
  ret void
}